target datalayout = "e-m:e-p270:32:32-p271:32:32-p272:64:64-i64:64-i128:128-f80:128-n8:16:32:64-S128"
target triple = "x86_64-pc-linux-gnu"

%struct.MOVFragmentIndex = type { i32, i32, i32, i32, ptr }
%struct.MOVFragmentIndexItem = type { i64, i32, i32, i32, ptr }
%struct.MOVFragmentStreamInfo = type { i32, i64, i64, i64, i64, i32, i32, ptr, i32 }

; Function Attrs: nounwind uwtable
define internal ptr @get_frag_stream_info(ptr noundef %0, i32 noundef %1, i32 noundef %2) #0 {
  %4 = alloca ptr, align 8
  %5 = alloca ptr, align 8
  %6 = alloca i32, align 4
  %7 = alloca i32, align 4
  %8 = alloca i32, align 4
  %9 = alloca ptr, align 8
  %10 = alloca i32, align 4
  store ptr %0, ptr %5, align 8, !tbaa !678
  store i32 %1, ptr %6, align 4, !tbaa !11
  store i32 %2, ptr %7, align 4, !tbaa !11
  call void @llvm.lifetime.start.p0(i64 4, ptr %8) #14
  call void @llvm.lifetime.start.p0(i64 8, ptr %9) #14
  %11 = load i32, ptr %6, align 4, !tbaa !11
  %12 = icmp slt i32 %11, 0
  br i1 %12, label %19, label %13

13:                                               ; preds = %3
  %14 = load i32, ptr %6, align 4, !tbaa !11
  %15 = load ptr, ptr %5, align 8, !tbaa !678
  %16 = getelementptr inbounds nuw %struct.MOVFragmentIndex, ptr %15, i32 0, i32 3
  %17 = load i32, ptr %16, align 4, !tbaa !680
  %18 = icmp sge i32 %14, %17
  br i1 %18, label %19, label %20

19:                                               ; preds = %13, %3
  store ptr null, ptr %4, align 8
  store i32 1, ptr %10, align 4
  br label %56

20:                                               ; preds = %13
  %21 = load ptr, ptr %5, align 8, !tbaa !678
  %22 = getelementptr inbounds nuw %struct.MOVFragmentIndex, ptr %21, i32 0, i32 4
  %23 = load ptr, ptr %22, align 8, !tbaa !681
  %24 = load i32, ptr %6, align 4, !tbaa !11
  %25 = sext i32 %24 to i64
  %26 = getelementptr inbounds %struct.MOVFragmentIndexItem, ptr %23, i64 %25
  store ptr %26, ptr %9, align 8, !tbaa !366
  store i32 0, ptr %8, align 4, !tbaa !11
  br label %27

27:                                               ; preds = %52, %20
  %28 = load i32, ptr %8, align 4, !tbaa !11
  %29 = load ptr, ptr %9, align 8, !tbaa !366
  %30 = getelementptr inbounds nuw %struct.MOVFragmentIndexItem, ptr %29, i32 0, i32 3
  %31 = load i32, ptr %30, align 8, !tbaa !252
  %32 = icmp slt i32 %28, %31
  br i1 %32, label %33, label %55

33:                                               ; preds = %27
  %34 = load ptr, ptr %9, align 8, !tbaa !366
  %35 = getelementptr inbounds nuw %struct.MOVFragmentIndexItem, ptr %34, i32 0, i32 4
  %36 = load ptr, ptr %35, align 8, !tbaa !250
  %37 = load i32, ptr %8, align 4, !tbaa !11
  %38 = sext i32 %37 to i64
  %39 = getelementptr inbounds %struct.MOVFragmentStreamInfo, ptr %36, i64 %38
  %40 = getelementptr inbounds nuw %struct.MOVFragmentStreamInfo, ptr %39, i32 0, i32 0
  %41 = load i32, ptr %40, align 8, !tbaa !670
  %42 = load i32, ptr %7, align 4, !tbaa !11
  %43 = icmp eq i32 %41, %42
  br i1 %43, label %44, label %51

44:                                               ; preds = %33
  %45 = load ptr, ptr %9, align 8, !tbaa !366
  %46 = getelementptr inbounds nuw %struct.MOVFragmentIndexItem, ptr %45, i32 0, i32 4
  %47 = load ptr, ptr %46, align 8, !tbaa !250
  %48 = load i32, ptr %8, align 4, !tbaa !11
  %49 = sext i32 %48 to i64
  %50 = getelementptr inbounds %struct.MOVFragmentStreamInfo, ptr %47, i64 %49
  store ptr %50, ptr %4, align 8
  store i32 1, ptr %10, align 4
  br label %56

51:                                               ; preds = %33
  br label %52

52:                                               ; preds = %51
  %53 = load i32, ptr %8, align 4, !tbaa !11
  %54 = add nsw i32 %53, 1
  store i32 %54, ptr %8, align 4, !tbaa !11
  br label %27, !llvm.loop !682

55:                                               ; preds = %27
  store ptr null, ptr %4, align 8
  store i32 1, ptr %10, align 4
  br label %56

56:                                               ; preds = %55, %44, %19
  call void @llvm.lifetime.end.p0(i64 8, ptr %9) #14
  call void @llvm.lifetime.end.p0(i64 4, ptr %8) #14
  %57 = load ptr, ptr %4, align 8
  ret ptr %57
}

; Function Attrs: nounwind uwtable
define internal void @fix_frag_index_entries(ptr noundef %0, i32 noundef %1, i32 noundef %2, i32 noundef %3) #0 {
  %5 = alloca ptr, align 8
  %6 = alloca i32, align 4
  %7 = alloca i32, align 4
  %8 = alloca i32, align 4
  %9 = alloca i32, align 4
  %10 = alloca ptr, align 8
  %11 = alloca i32, align 4
  store ptr %0, ptr %5, align 8, !tbaa !678
  store i32 %1, ptr %6, align 4, !tbaa !11
  store i32 %2, ptr %7, align 4, !tbaa !11
  store i32 %3, ptr %8, align 4, !tbaa !11
  call void @llvm.lifetime.start.p0(i64 4, ptr %9) #14
  call void @llvm.lifetime.start.p0(i64 8, ptr %10) #14
  %12 = load i32, ptr %6, align 4, !tbaa !11
  %13 = icmp slt i32 %12, 0
  br i1 %13, label %14, label %15

14:                                               ; preds = %4
  store i32 1, ptr %11, align 4
  br label %46

15:                                               ; preds = %4
  %16 = load i32, ptr %6, align 4, !tbaa !11
  store i32 %16, ptr %9, align 4, !tbaa !11
  br label %17

17:                                               ; preds = %42, %15
  %18 = load i32, ptr %9, align 4, !tbaa !11
  %19 = load ptr, ptr %5, align 8, !tbaa !678
  %20 = getelementptr inbounds nuw %struct.MOVFragmentIndex, ptr %19, i32 0, i32 3
  %21 = load i32, ptr %20, align 4, !tbaa !680
  %22 = icmp slt i32 %18, %21
  br i1 %22, label %23, label %45

23:                                               ; preds = %17
  %24 = load ptr, ptr %5, align 8, !tbaa !678
  %25 = load i32, ptr %9, align 4, !tbaa !11
  %26 = load i32, ptr %7, align 4, !tbaa !11
  %27 = call ptr @get_frag_stream_info(ptr noundef %24, i32 noundef %25, i32 noundef %26)
  store ptr %27, ptr %10, align 8, !tbaa !251
  %28 = load ptr, ptr %10, align 8, !tbaa !251
  %29 = icmp ne ptr %28, null
  br i1 %29, label %30, label %41

30:                                               ; preds = %23
  %31 = load ptr, ptr %10, align 8, !tbaa !251
  %32 = getelementptr inbounds nuw %struct.MOVFragmentStreamInfo, ptr %31, i32 0, i32 6
  %33 = load i32, ptr %32, align 4, !tbaa !455
  %34 = icmp sge i32 %33, 0
  br i1 %34, label %35, label %41

35:                                               ; preds = %30
  %36 = load i32, ptr %8, align 4, !tbaa !11
  %37 = load ptr, ptr %10, align 8, !tbaa !251
  %38 = getelementptr inbounds nuw %struct.MOVFragmentStreamInfo, ptr %37, i32 0, i32 6
  %39 = load i32, ptr %38, align 4, !tbaa !455
  %40 = add nsw i32 %39, %36
  store i32 %40, ptr %38, align 4, !tbaa !455
  br label %41

41:                                               ; preds = %35, %30, %23
  br label %42

42:                                               ; preds = %41
  %43 = load i32, ptr %9, align 4, !tbaa !11
  %44 = add nsw i32 %43, 1
  store i32 %44, ptr %9, align 4, !tbaa !11
  br label %17, !llvm.loop !757

45:                                               ; preds = %17
  store i32 0, ptr %11, align 4
  br label %46

46:                                               ; preds = %45, %14
  call void @llvm.lifetime.end.p0(i64 8, ptr %10) #14
  call void @llvm.lifetime.end.p0(i64 4, ptr %9) #14
  %47 = load i32, ptr %11, align 4
  switch i32 %47, label %49 [
    i32 0, label %48
    i32 1, label %48
  ]

48:                                               ; preds = %46, %46
  ret void

49:                                               ; preds = %46
  unreachable
}