; Function Attrs: nofree norecurse nosync nounwind memory(readwrite, inaccessiblemem: none) uwtable
define internal fastcc void @fix_frag_index_entries(ptr noundef readonly captures(none) %0, i32 noundef range(i32 -2147483647, -2147483648) %1, i32 noundef %2, i32 noundef %3) unnamed_addr #11 {
  %5 = icmp slt i32 %1, 0
  br i1 %5, label %.loopexit, label %.preheader

.preheader:                                       ; preds = %4
  %6 = getelementptr inbounds nuw i8, ptr %0, i64 12
  %7 = load i32, ptr %6, align 4, !tbaa !336
  %8 = icmp slt i32 %1, %7
  br i1 %8, label %.lr.ph, label %.loopexit

.lr.ph:                                           ; preds = %.preheader
  %9 = getelementptr inbounds nuw i8, ptr %0, i64 16
  %10 = zext nneg i32 %1 to i64
  %11 = load ptr, ptr %9, align 8, !tbaa !337
  br label %12

12:                                               ; preds = %get_frag_stream_info.exit.thread, %.lr.ph
  %indvars.iv = phi i64 [ %10, %.lr.ph ], [ %indvars.iv.next, %get_frag_stream_info.exit.thread ]
  %13 = getelementptr inbounds nuw %struct.MOVFragmentIndexItem, ptr %11, i64 %indvars.iv
  %14 = getelementptr inbounds nuw i8, ptr %13, i64 16
  %15 = load i32, ptr %14, align 8, !tbaa !338
  %16 = icmp sgt i32 %15, 0
  br i1 %16, label %.lr.ph.i, label %get_frag_stream_info.exit.thread

.lr.ph.i:                                         ; preds = %12
  %17 = getelementptr inbounds nuw i8, ptr %13, i64 24
  %18 = load ptr, ptr %17, align 8, !tbaa !339
  %wide.trip.count.i = zext nneg i32 %15 to i64
  br label %20

19:                                               ; preds = %20
  %indvars.iv.next.i = add nuw nsw i64 %indvars.iv.i, 1
  %exitcond.not.i = icmp eq i64 %indvars.iv.next.i, %wide.trip.count.i
  br i1 %exitcond.not.i, label %get_frag_stream_info.exit.thread, label %20, !llvm.loop !340

20:                                               ; preds = %19, %.lr.ph.i
  %indvars.iv.i = phi i64 [ 0, %.lr.ph.i ], [ %indvars.iv.next.i, %19 ]
  %21 = getelementptr inbounds nuw %struct.MOVFragmentStreamInfo, ptr %18, i64 %indvars.iv.i
  %22 = load i32, ptr %21, align 8, !tbaa !341
  %23 = icmp eq i32 %22, %2
  br i1 %23, label %get_frag_stream_info.exit, label %19

get_frag_stream_info.exit:                        ; preds = %20
  %24 = getelementptr inbounds nuw i8, ptr %21, i64 44
  %25 = load i32, ptr %24, align 4, !tbaa !546
  %26 = icmp sgt i32 %25, -1
  br i1 %26, label %27, label %get_frag_stream_info.exit.thread

27:                                               ; preds = %get_frag_stream_info.exit
  %28 = add nsw i32 %25, %3
  store i32 %28, ptr %24, align 4, !tbaa !546
  br label %get_frag_stream_info.exit.thread

get_frag_stream_info.exit.thread:                 ; preds = %19, %12, %get_frag_stream_info.exit, %27
  %indvars.iv.next = add nuw nsw i64 %indvars.iv, 1
  %29 = trunc nuw i64 %indvars.iv.next to i32
  %30 = icmp sgt i32 %7, %29
  br i1 %30, label %12, label %.loopexit, !llvm.loop !756

.loopexit:                                        ; preds = %get_frag_stream_info.exit.thread, %.preheader, %4
  ret void
}